(dp0
S'N19'
p1
(lp2
F60000.0
aF0.0
aF0.0
aF0.0
aF0.0
aF0.0
aF0.0
aF50000.0
aF50000.0
aF0.0
aF0.0
aF0.0
aF0.0
aF0.0
aF0.0
aF0.0
aF0.0
aF0.0
aF0.0
aF0.0
aF50000.0
aF0.0
aF0.0
aF0.0
aF368218.0
aF1000000.0
aF1000000.0
aF731782.0
aF0.0
aF0.0
aF0.0
aF0.0
aF0.0
aF0.0
aF0.0
aF0.0
aF0.0
aF0.0
aF0.0
aF0.0
aF0.0
aF0.0
aF0.0
aF0.0
aF0.0
aF0.0
aF0.0
aF0.0
aF0.0
aF0.0
aF0.0
aF0.0
aF0.0
aF0.0
aF0.0
aF0.0
aF0.0
aF0.0
aF10000.0
asS'N14'
p3
(lp4
F1000000.0
aF1000000.0
aF1000000.0
aF1000000.0
aF1000000.0
aF1000000.0
aF1000000.0
aF1000000.0
aF1000000.0
aF1000000.0
aF1000000.0
aF1000000.0
aF1000000.0
aF1000000.0
aF1000000.0
aF1000000.0
aF1000000.0
aF1000000.0
aF1000000.0
aF0.0
aF0.0
aF0.0
aF0.0
aF0.0
aF0.0
aF0.0
aF0.0
aF0.0
aF0.0
aF0.0
aF0.0
aF0.0
aF0.0
aF0.0
aF0.0
aF0.0
aF0.0
aF0.0
aF0.0
aF0.0
aF0.0
aF0.0
aF0.0
aF0.0
aF0.0
aF0.0
aF0.0
aF0.0
aF0.0
aF0.0
aF0.0
aF0.0
aF0.0
aF0.0
aF0.0
aF0.0
aF0.0
aF0.0
aF0.0
aF0.0
aF0.0
aF0.0
aF0.0
aF0.0
aF0.0
aF0.0
aF0.0
aF0.0
aF0.0
aF0.0
aF0.0
aF0.0
aF0.0
aF0.0
aF0.0
aF0.0
aF0.0
aF0.0
aF0.0
aF0.0
aF0.0
aF0.0
aF0.0
aF0.0
aF0.0
aF0.0
aF0.0
aF0.0
aF0.0
aF0.0
aF0.0
aF0.0
aF0.0
aF0.0
aF0.0
aF0.0
aF0.0
aF0.0
aF0.0
aF0.0
aF0.0
aF0.0
aF0.0
aF0.0
aF0.0
aF0.0
aF60000.0
asS'N16'
p5
(lp6
F60000.0
aF0.0
aF0.0
aF0.0
aF0.0
aF0.0
aF0.0
aF0.0
aF50000.0
aF0.0
aF0.0
aF0.0
aF0.0
aF0.0
aF0.0
aF0.0
aF0.0
aF0.0
aF0.0
aF0.0
aF0.0
aF0.0
aF0.0
aF0.0
aF0.0
aF0.0
aF0.0
aF0.0
aF0.0
aF0.0
aF0.0
aF0.0
aF0.0
aF0.0
aF150000.0
aF714199.0
aF1000000.0
aF1000000.0
aF1000000.0
aF1000000.0
aF1000000.0
aF1000000.0
aF1000000.0
aF1000000.0
aF1000000.0
aF1000000.0
aF385801.0
aF0.0
aF0.0
aF0.0
aF0.0
aF0.0
aF0.0
aF0.0
aF0.0
aF0.0
aF0.0
aF0.0
aF0.0
aF0.0
aF0.0
aF0.0
aF0.0
aF0.0
aF0.0
aF0.0
aF0.0
aF0.0
aF0.0
aF0.0
aF0.0
aF0.0
aF0.0
aF0.0
aF0.0
aF0.0
aF0.0
aF0.0
aF0.0
aF0.0
aF0.0
aF0.0
aF0.0
aF0.0
aF0.0
aF0.0
aF0.0
aF0.0
aF50000.0
aF60000.0
asS'N1'
p7
(lp8
F160000.0
aF0.0
aF50000.0
aF150000.0
aF0.0
aF0.0
aF0.0
aF0.0
aF0.0
aF0.0
aF0.0
aF0.0
aF0.0
aF200000.0
aF0.0
aF0.0
aF0.0
aF50000.0
aF0.0
aF0.0
aF0.0
aF0.0
aF0.0
aF0.0
aF0.0
aF0.0
aF0.0
aF0.0
aF0.0
aF121918.0
aF28082.0
aF0.0
aF0.0
aF0.0
aF0.0
aF0.0
aF0.0
aF0.0
aF0.0
aF0.0
aF0.0
aF0.0
aF0.0
aF0.0
aF0.0
aF0.0
aF0.0
aF0.0
aF0.0
aF0.0
aF0.0
aF0.0
aF0.0
aF0.0
aF0.0
aF0.0
aF0.0
aF0.0
aF0.0
aF0.0
aF0.0
aF0.0
aF0.0
aF0.0
aF0.0
aF0.0
aF0.0
aF0.0
aF0.0
aF0.0
aF0.0
aF0.0
aF0.0
aF0.0
aF0.0
aF0.0
aF0.0
aF0.0
aF0.0
aF0.0
aF0.0
aF0.0
aF0.0
aF0.0
aF0.0
aF0.0
aF0.0
aF0.0
aF0.0
aF0.0
aF0.0
aF0.0
aF0.0
aF0.0
aF0.0
aF0.0
aF0.0
aF0.0
aF0.0
aF0.0
aF0.0
aF0.0
aF0.0
aF50000.0
aF0.0
aF0.0
aF0.0
aF0.0
aF0.0
aF0.0
aF0.0
aF0.0
aF0.0
aF0.0
aF0.0
aF0.0
aF0.0
aF0.0
aF0.0
aF0.0
aF113305.0
aF601261.0
aF1000000.0
aF1000000.0
aF1000000.0
aF1000000.0
aF1000000.0
aF1000000.0
aF1000000.0
aF1000000.0
aF1000000.0
aF1000000.0
aF1000000.0
aF1000000.0
aF1000000.0
aF1000000.0
aF1000000.0
aF1000000.0
aF1000000.0
aF1000000.0
aF1000000.0
aF1000000.0
aF617673.0
aF367761.0
aF300000.0
aF50000.0
aF100000.0
aF0.0
aF395540.0
aF54460.0
aF0.0
aF0.0
aF0.0
aF0.0
aF0.0
aF0.0
aF0.0
aF0.0
aF0.0
aF0.0
aF0.0
aF0.0
aF0.0
aF0.0
aF0.0
aF0.0
aF0.0
aF0.0
aF0.0
aF0.0
aF0.0
aF0.0
aF0.0
aF0.0
aF0.0
aF0.0
aF0.0
aF0.0
aF0.0
aF0.0
aF0.0
aF0.0
aF0.0
aF0.0
aF0.0
aF0.0
aF0.0
aF0.0
aF0.0
aF0.0
aF0.0
aF0.0
aF0.0
aF0.0
aF0.0
aF0.0
aF0.0
aF0.0
aF0.0
aF0.0
aF0.0
aF0.0
aF0.0
aF0.0
aF0.0
aF77293.0
aF222707.0
aF0.0
aF0.0
aF0.0
aF0.0
aF0.0
aF0.0
aF0.0
aF0.0
aF0.0
aF0.0
aF0.0
aF0.0
aF0.0
aF0.0
aF0.0
aF0.0
aF50000.0
aF0.0
aF0.0
aF0.0
aF0.0
aF0.0
aF0.0
aF0.0
aF0.0
aF0.0
aF0.0
aF0.0
aF50000.0
aF0.0
aF0.0
aF0.0
aF0.0
aF0.0
aF0.0
aF0.0
aF0.0
aF0.0
aF0.0
aF0.0
aF0.0
aF68210.0
asS'N17'
p9
(lp10
F100000.0
aF0.0
aF0.0
aF0.0
aF0.0
aF0.0
aF0.0
aF0.0
aF0.0
aF0.0
aF0.0
aF0.0
aF0.0
aF0.0
aF0.0
aF0.0
aF0.0
aF0.0
aF0.0
aF0.0
aF0.0
aF100000.0
aF736994.0
aF1000000.0
aF1000000.0
aF263006.0
aF0.0
aF0.0
aF0.0
aF0.0
aF0.0
aF0.0
aF0.0
aF0.0
aF50000.0
aF0.0
aF0.0
aF0.0
aF0.0
aF0.0
aF0.0
aF0.0
aF0.0
aF0.0
aF0.0
aF0.0
aF0.0
aF0.0
aF0.0
aF0.0
aF0.0
aF0.0
aF0.0
aF0.0
aF0.0
aF0.0
aF0.0
aF0.0
aF0.0
aF0.0
aF0.0
aF0.0
aF50000.0
aF0.0
aF0.0
aF0.0
aF0.0
aF0.0
aF0.0
aF0.0
aF0.0
aF0.0
aF0.0
aF0.0
aF0.0
aF0.0
aF0.0
aF50000.0
aF0.0
aF50000.0
aF0.0
asS'NX'
p11
(lp12
F160000.0
aF150000.0
aF50000.0
aF0.0
aF0.0
aF0.0
aF0.0
aF50000.0
aF0.0
aF0.0
aF50000.0
aF0.0
aF0.0
aF0.0
aF0.0
aF0.0
aF0.0
aF0.0
aF0.0
aF0.0
aF0.0
aF0.0
aF0.0
aF0.0
aF0.0
aF0.0
aF0.0
aF0.0
aF0.0
aF0.0
aF0.0
aF0.0
aF0.0
aF0.0
aF0.0
aF0.0
aF0.0
aF50000.0
aF0.0
aF0.0
aF0.0
aF0.0
aF0.0
aF0.0
aF0.0
aF0.0
aF0.0
aF0.0
aF0.0
aF75827.0
aF24173.0
aF0.0
aF50000.0
aF0.0
aF0.0
aF0.0
aF0.0
aF0.0
aF417988.0
aF1000000.0
aF1000000.0
aF682012.0
aF0.0
aF0.0
aF0.0
aF0.0
aF0.0
aF0.0
aF0.0
aF0.0
aF0.0
aF0.0
aF0.0
aF0.0
aF0.0
aF0.0
aF50000.0
aF0.0
aF0.0
aF0.0
aF0.0
aF0.0
aF0.0
aF0.0
aF0.0
aF0.0
aF0.0
aF0.0
aF0.0
aF0.0
aF0.0
aF0.0
aF0.0
aF0.0
aF0.0
aF0.0
aF0.0
aF0.0
aF0.0
aF0.0
aF0.0
aF0.0
aF0.0
aF0.0
aF0.0
aF0.0
aF0.0
aF0.0
aF0.0
aF0.0
aF0.0
aF0.0
aF0.0
aF50000.0
aF0.0
aF50000.0
aF0.0
aF0.0
aF0.0
aF0.0
aF50000.0
aF0.0
aF0.0
aF0.0
aF0.0
aF0.0
aF0.0
aF0.0
aF0.0
aF0.0
aF0.0
aF0.0
aF0.0
aF0.0
aF0.0
aF0.0
aF0.0
aF0.0
aF0.0
aF0.0
aF0.0
aF0.0
aF0.0
aF50000.0
aF0.0
aF0.0
aF0.0
aF0.0
aF50000.0
aF50000.0
aF0.0
aF0.0
aF50000.0
aF0.0
aF10000.0
asS'20'
p13
(lp14
F435867.0
aF447292.0
aF449971.0
aF468252.0
aF445183.0
aF432501.0
aF394276.0
aF369905.0
aF381361.0
aF391977.0
aF404073.0
aF384549.0
aF387162.0
aF397348.0
aF372494.0
aF385712.0
aF406697.0
aF438261.0
aF426173.0
aF433826.0
aF417909.0
aF413940.0
aF413739.0
aF450935.0
aF452166.0
aF453067.0
aF125514.0
aF0.0
aF0.0
aF172907.0
aF472358.0
aF493287.0
aF462952.0
aF448745.0
aF445713.0
aF476255.0
aF468474.0
aF451018.0
aF395978.0
aF443445.0
aF425269.0
aF427482.0
aF464975.0
aF449177.0
aF470370.0
aF449782.0
aF467196.0
aF469818.0
aF484521.0
aF470655.0
aF450211.0
aF408077.0
aF423049.0
aF383236.0
aF400084.0
aF479298.0
aF474881.0
aF466271.0
aF442351.0
aF449386.0
aF538784.0
aF511824.0
aF0.0
asS'21'
p15
(lp16
F0.0
aF0.0
aF0.0
aF0.0
aF0.0
aF0.0
aF0.0
aF0.0
aF0.0
aF200864.0
aF285171.0
aF76120.0
aF0.0
aF0.0
aF247342.0
aF394907.0
aF375988.0
aF357753.0
aF377574.0
aF371570.0
aF351926.0
aF349077.0
aF348669.0
aF351055.0
aF344642.0
aF355334.0
aF365114.0
aF392750.0
aF368866.0
aF365270.0
aF395462.0
aF370720.0
aF414036.0
aF442914.0
aF431288.0
aF433273.0
aF418942.0
aF444282.0
aF431007.0
aF422771.0
aF432348.0
aF418873.0
aF420779.0
aF491200.0
aF487407.0
aF524386.0
aF524326.0
aF52749.0
asS'22'
p17
(lp18
F0.0
aF0.0
aF0.0
aF0.0
aF0.0
aF0.0
aF0.0
aF0.0
aF0.0
aF0.0
aF0.0
aF0.0
aF0.0
aF0.0
aF0.0
aF0.0
aF329662.0
aF439359.0
aF478273.0
aF504702.0
aF473312.0
aF498128.0
aF462360.0
aF492730.0
aF495250.0
aF471705.0
aF447931.0
aF463731.0
aF423567.0
aF468111.0
aF474538.0
aF472890.0
aF455019.0
aF443324.0
aF420057.0
aF459715.0
aF458699.0
aF517508.0
aF514845.0
aF515268.0
aF447605.0
aF476974.0
aF498943.0
aF512922.0
aF490628.0
aF504762.0
aF510994.0
aF493381.0
aF476026.0
aF505769.0
aF125241.0
asS'1'
p19
(lp20
F393199.0
aF568915.0
aF553133.0
aF484134.0
aF482201.0
aF469288.0
aF517520.0
aF479461.0
aF444356.0
aF501970.0
aF478274.0
aF500043.0
aF469178.0
aF370922.0
aF431262.0
aF483830.0
aF496197.0
aF481437.0
aF491613.0
aF487321.0
aF473806.0
aF460534.0
aF491468.0
aF472911.0
aF464707.0
aF474254.0
aF487044.0
aF495588.0
aF452362.0
aF410058.0
aF464344.0
aF469672.0
aF482056.0
aF467666.0
aF446014.0
aF433097.0
aF460455.0
aF480215.0
aF466472.0
aF444043.0
aF449500.0
aF464450.0
aF434464.0
aF454821.0
aF469327.0
aF451592.0
aF451369.0
aF438481.0
aF442325.0
aF399961.0
aF394930.0
aF397650.0
aF413492.0
aF461702.0
aF473560.0
aF451045.0
aF403637.0
aF404398.0
aF409237.0
aF414909.0
aF384905.0
aF397585.0
aF416299.0
aF389097.0
aF410554.0
aF407677.0
aF377587.0
aF389603.0
aF404482.0
aF371276.0
aF365388.0
aF372573.0
aF349062.0
aF349743.0
aF356822.0
aF372938.0
aF385082.0
aF384947.0
aF386428.0
aF358592.0
aF353428.0
aF360031.0
aF368016.0
aF364036.0
aF377918.0
aF399552.0
aF377571.0
aF394708.0
aF377171.0
aF386802.0
aF392425.0
aF392492.0
aF408080.0
aF388838.0
aF418095.0
aF408688.0
aF371977.0
aF366373.0
aF352919.0
aF369112.0
aF384278.0
aF382957.0
aF350853.0
aF330294.0
aF351573.0
aF345639.0
aF347466.0
aF365270.0
aF389752.0
aF426751.0
aF470404.0
aF412394.0
aF433342.0
aF427321.0
aF408191.0
aF399831.0
aF417606.0
aF426198.0
aF391719.0
aF394212.0
aF371000.0
aF159223.0
aF0.0
aF0.0
aF0.0
aF0.0
aF0.0
aF0.0
aF0.0
aF0.0
aF0.0
aF0.0
aF0.0
aF0.0
aF0.0
aF0.0
aF0.0
aF0.0
aF0.0
aF0.0
aF0.0
aF0.0
aF151130.0
aF261117.0
aF290052.0
aF403752.0
aF371804.0
aF422509.0
aF246517.0
aF403997.0
aF438066.0
aF456599.0
aF414099.0
aF455255.0
aF470134.0
aF469545.0
aF504268.0
aF423084.0
aF389084.0
aF410690.0
aF441275.0
aF445826.0
aF410917.0
aF376093.0
aF394336.0
aF421932.0
aF401974.0
aF418088.0
aF405309.0
aF380362.0
aF378515.0
aF397487.0
aF381497.0
aF395673.0
aF383066.0
aF428835.0
aF392410.0
aF407004.0
aF398640.0
aF408026.0
aF411509.0
aF433382.0
aF419301.0
aF411391.0
aF398936.0
aF377092.0
aF367066.0
aF357133.0
aF342571.0
aF339830.0
aF336441.0
aF343076.0
aF362486.0
aF364908.0
aF344261.0
aF342070.0
aF349261.0
aF362890.0
aF358997.0
aF372443.0
aF421856.0
aF487769.0
aF455461.0
aF464077.0
aF477656.0
aF434364.0
aF348339.0
aF406088.0
aF431820.0
aF420552.0
aF411359.0
aF418297.0
aF426893.0
aF412866.0
aF406566.0
aF372266.0
aF363051.0
aF377555.0
aF385535.0
aF377551.0
aF400435.0
aF389738.0
aF406775.0
aF416849.0
aF427430.0
aF401168.0
aF467329.0
aF423100.0
aF500766.0
aF440307.0
aF445584.0
aF423873.0
aF416348.0
aF406617.0
aF429106.0
aF406264.0
aF429946.0
aF393258.0
aF376128.0
aF374148.0
aF401745.0
aF390642.0
aF409312.0
aF392308.0
aF423725.0
aF438585.0
aF416345.0
aF412800.0
aF82106.0
asS'NY'
p21
(lp22
F1000000.0
aF1000000.0
aF649520.0
aF0.0
aF0.0
aF0.0
aF0.0
aF0.0
aF50000.0
aF50000.0
aF895447.0
aF1000000.0
aF1000000.0
aF204553.0
aF0.0
aF0.0
aF0.0
aF0.0
aF0.0
aF0.0
aF50000.0
aF0.0
aF50000.0
aF50000.0
aF0.0
aF0.0
aF0.0
aF0.0
aF180639.0
aF1000000.0
aF1000000.0
aF1000000.0
aF1000000.0
aF1000000.0
aF1000000.0
aF1000000.0
aF1000000.0
aF1000000.0
aF1000000.0
aF1000000.0
aF1000000.0
aF1000000.0
aF1000000.0
aF1000000.0
aF1000000.0
aF1000000.0
aF1000000.0
aF1000000.0
aF1000000.0
aF1000000.0
aF1000000.0
aF1000000.0
aF1000000.0
aF1000000.0
aF1000000.0
aF1000000.0
aF1000000.0
aF1000000.0
aF339517.0
asS'3'
p23
(lp24
F346943.0
aF366078.0
aF376935.0
aF394239.0
aF408256.0
aF407686.0
aF373390.0
aF381053.0
aF418322.0
aF460620.0
aF477105.0
aF448029.0
aF442599.0
aF509658.0
aF470275.0
aF419067.0
aF414590.0
aF383028.0
aF373464.0
aF374026.0
aF378424.0
aF365488.0
aF367384.0
aF399509.0
aF385335.0
aF387421.0
aF380924.0
aF394120.0
aF373853.0
aF363987.0
aF380484.0
aF401697.0
aF432519.0
aF401440.0
aF383963.0
aF360941.0
aF394097.0
aF422875.0
aF446812.0
aF416413.0
aF414856.0
aF400692.0
aF447351.0
aF424086.0
aF425600.0
aF444255.0
aF452365.0
aF454404.0
aF476658.0
aF497381.0
aF490973.0
aF436404.0
aF498582.0
aF448402.0
aF425481.0
aF415527.0
aF404243.0
aF417583.0
aF438475.0
aF400318.0
aF384970.0
aF401747.0
aF401184.0
aF393011.0
aF407347.0
aF400234.0
aF373520.0
aF387435.0
aF385960.0
aF401051.0
aF376929.0
aF414980.0
aF442333.0
aF409036.0
aF370232.0
aF409534.0
aF356015.0
aF360364.0
aF362132.0
aF350385.0
aF347421.0
aF360142.0
aF353767.0
aF339203.0
aF347160.0
aF340432.0
aF352006.0
aF361417.0
aF359300.0
aF352914.0
aF185356.0
aF0.0
aF0.0
aF187312.0
aF353715.0
aF344295.0
aF354636.0
aF363904.0
aF377922.0
aF384403.0
aF383708.0
aF392193.0
aF358919.0
aF345171.0
aF353659.0
aF363352.0
aF370609.0
aF386891.0
aF381390.0
aF374086.0
aF365788.0
aF387169.0
aF395986.0
aF397439.0
aF365220.0
aF380372.0
aF370192.0
aF366026.0
aF386468.0
aF406382.0
aF387314.0
aF393714.0
aF421883.0
aF445270.0
aF435326.0
aF436999.0
aF486105.0
aF465677.0
aF487860.0
aF460824.0
aF384732.0
aF391858.0
aF388476.0
aF433216.0
aF442750.0
aF408419.0
aF403047.0
aF398454.0
aF430885.0
aF423022.0
aF421625.0
aF412962.0
aF392882.0
aF384087.0
aF351757.0
aF353674.0
aF357492.0
aF362445.0
aF374482.0
aF396665.0
aF400573.0
aF370081.0
aF378601.0
aF373963.0
aF371352.0
aF398940.0
aF394490.0
aF380803.0
aF384528.0
aF402073.0
aF382674.0
aF365107.0
aF347466.0
aF348137.0
aF343736.0
aF348009.0
aF355054.0
aF367004.0
aF360163.0
aF394151.0
aF405409.0
aF396324.0
aF387352.0
aF355286.0
aF355005.0
aF353425.0
aF383048.0
aF388327.0
aF381542.0
aF394307.0
aF375656.0
aF384788.0
aF395614.0
aF448168.0
aF449033.0
aF428428.0
aF432976.0
aF414991.0
aF389959.0
aF376931.0
aF368387.0
aF368734.0
aF388438.0
aF427618.0
aF465603.0
aF467146.0
aF429716.0
aF0.0
asS'2'
p25
(lp26
F436266.0
aF467577.0
aF443486.0
aF443628.0
aF386735.0
aF360785.0
aF400366.0
aF411368.0
aF438733.0
aF447306.0
aF480557.0
aF452094.0
aF410123.0
aF359448.0
aF373617.0
aF414704.0
aF410951.0
aF382073.0
aF394245.0
aF405723.0
aF448733.0
aF387354.0
aF369474.0
aF445097.0
aF405026.0
aF460776.0
aF460035.0
aF467412.0
aF429794.0
aF432669.0
aF428463.0
aF427299.0
aF396672.0
aF404616.0
aF379558.0
aF353929.0
aF389456.0
aF397984.0
aF421939.0
aF398180.0
aF375120.0
aF363877.0
aF429822.0
aF444890.0
aF397079.0
aF429815.0
aF432928.0
aF462385.0
aF402824.0
aF382662.0
aF360538.0
aF352268.0
aF359407.0
aF375505.0
aF406297.0
aF398519.0
aF380177.0
aF356026.0
aF362232.0
aF377240.0
aF422174.0
aF410325.0
aF419516.0
aF374977.0
aF405922.0
aF437997.0
aF396887.0
aF381571.0
aF396641.0
aF416833.0
aF437674.0
aF451590.0
aF407479.0
aF441886.0
aF454374.0
aF407516.0
aF365778.0
aF349748.0
aF349347.0
aF381098.0
aF389643.0
aF358719.0
aF350801.0
aF354828.0
aF384176.0
aF465040.0
aF430526.0
aF417019.0
aF415337.0
aF323223.0
aF204895.0
aF174578.0
aF129852.0
aF0.0
aF0.0
aF298678.0
aF444098.0
aF456669.0
aF420247.0
aF422435.0
aF418923.0
aF443587.0
aF423453.0
aF384770.0
aF361137.0
aF417687.0
aF435461.0
aF401406.0
aF387158.0
aF435788.0
aF382562.0
aF431204.0
aF434692.0
aF433289.0
aF417397.0
aF376254.0
aF360467.0
aF364403.0
aF400636.0
aF435960.0
aF418624.0
aF504072.0
aF435097.0
aF370707.0
aF366515.0
aF381498.0
aF370258.0
aF438916.0
aF447043.0
aF453113.0
aF436601.0
aF455650.0
aF409991.0
aF407546.0
aF411132.0
aF415924.0
aF402261.0
aF395813.0
aF375674.0
aF372184.0
aF359520.0
aF346464.0
aF349372.0
aF364627.0
aF369983.0
aF372636.0
aF353317.0
aF361614.0
aF374783.0
aF357359.0
aF384329.0
aF383431.0
aF398790.0
aF390803.0
aF365722.0
aF351719.0
aF347435.0
aF372723.0
aF387136.0
aF403359.0
aF386328.0
aF389300.0
aF367404.0
aF356085.0
aF361193.0
aF364637.0
aF364101.0
aF356554.0
aF378165.0
aF395112.0
aF389872.0
aF406811.0
aF404148.0
aF414184.0
aF406504.0
aF398232.0
aF397430.0
aF396525.0
aF391274.0
aF384768.0
aF371633.0
aF360740.0
aF368470.0
aF372270.0
aF365260.0
aF339833.0
aF345840.0
aF368963.0
aF355230.0
aF352617.0
aF370654.0
aF391067.0
aF388465.0
aF346303.0
aF340407.0
aF342764.0
aF376884.0
aF386778.0
aF398312.0
aF363475.0
aF392518.0
aF408018.0
aF413710.0
aF407950.0
aF404545.0
aF382461.0
aF410786.0
aF400184.0
aF415802.0
aF378678.0
aF367352.0
aF364606.0
aF353755.0
aF355057.0
aF360510.0
aF370143.0
aF401901.0
aF441945.0
aF447284.0
aF470550.0
aF472393.0
aF386702.0
aF387991.0
aF405584.0
aF403977.0
aF399567.0
aF369411.0
aF391919.0
aF403612.0
aF377522.0
aF406805.0
aF431422.0
aF462026.0
aF473004.0
aF418147.0
aF447245.0
aF460476.0
aF455199.0
aF458415.0
aF470526.0
aF486600.0
aF531426.0
aF58387.0
asS'5'
p27
(lp28
F512746.0
aF536477.0
aF451496.0
aF440495.0
aF399891.0
aF419496.0
aF440829.0
aF405744.0
aF385162.0
aF404365.0
aF441114.0
aF390288.0
aF356109.0
aF380966.0
aF431989.0
aF392434.0
aF419697.0
aF387319.0
aF356397.0
aF349720.0
aF351503.0
aF356504.0
aF354026.0
aF354443.0
aF350969.0
aF349134.0
aF349315.0
aF344847.0
aF348930.0
aF346544.0
aF356301.0
aF416952.0
aF422013.0
aF396076.0
aF398861.0
aF392439.0
aF388683.0
aF400771.0
aF408066.0
aF374713.0
aF383465.0
aF375553.0
aF383589.0
aF402801.0
aF364065.0
aF357059.0
aF148720.0
aF0.0
aF0.0
aF222828.0
aF360863.0
aF352366.0
aF379827.0
aF399395.0
aF400203.0
aF414857.0
aF402090.0
aF378921.0
aF377867.0
aF377675.0
aF394018.0
aF401289.0
aF371133.0
aF375027.0
aF369588.0
aF395904.0
aF388142.0
aF396256.0
aF415998.0
aF379908.0
aF390745.0
aF409989.0
aF406864.0
aF408749.0
aF389248.0
aF403724.0
aF412342.0
aF396490.0
aF403483.0
aF416213.0
aF389779.0
aF390731.0
aF370128.0
aF358484.0
aF341959.0
aF350075.0
aF364760.0
aF369758.0
aF360638.0
aF366500.0
aF377196.0
aF330906.0
aF372100.0
aF365375.0
aF373168.0
aF391415.0
aF381498.0
aF366477.0
aF371905.0
aF354231.0
aF350131.0
aF359754.0
aF366683.0
aF355403.0
aF342717.0
aF344629.0
aF366455.0
aF375788.0
aF376868.0
aF371054.0
aF374999.0
aF392361.0
aF400774.0
aF379041.0
aF389147.0
aF388364.0
aF370731.0
aF363142.0
aF386117.0
aF361577.0
aF351056.0
aF376496.0
aF385637.0
aF383566.0
aF381824.0
aF384218.0
aF402057.0
aF377673.0
aF363439.0
aF363275.0
aF385149.0
aF431837.0
aF447420.0
aF463980.0
aF455375.0
aF419687.0
aF418385.0
aF434006.0
aF425799.0
aF458700.0
aF416659.0
aF463295.0
aF412484.0
aF383587.0
aF370098.0
aF403301.0
aF393979.0
aF375313.0
aF430777.0
aF486289.0
aF439556.0
aF405351.0
aF384037.0
aF429379.0
aF418733.0
aF365136.0
aF418650.0
aF413872.0
aF403819.0
aF433409.0
aF384078.0
aF358163.0
aF373215.0
aF365383.0
aF357569.0
aF367617.0
aF382069.0
aF425647.0
aF434213.0
aF441749.0
aF424663.0
aF453939.0
aF469688.0
aF443080.0
aF428130.0
aF464382.0
aF502719.0
aF480254.0
aF479307.0
aF411409.0
asS'4'
p29
(lp30
F476007.0
aF515657.0
aF491295.0
aF516580.0
aF457646.0
aF448741.0
aF498609.0
aF516283.0
aF518414.0
aF432163.0
aF426932.0
aF389819.0
aF372947.0
aF398207.0
aF388842.0
aF402412.0
aF405904.0
aF407891.0
aF376609.0
aF364087.0
aF371393.0
aF376066.0
aF385435.0
aF373404.0
aF416789.0
aF432331.0
aF402626.0
aF374831.0
aF355210.0
aF343486.0
aF354220.0
aF345226.0
aF344763.0
aF348583.0
aF342684.0
aF349677.0
aF364564.0
aF401742.0
aF420811.0
aF408907.0
aF430843.0
aF407671.0
aF392120.0
aF358538.0
aF360843.0
aF352775.0
aF357755.0
aF373692.0
aF392708.0
aF217989.0
aF0.0
aF0.0
aF136621.0
aF407463.0
aF400762.0
aF411890.0
aF391752.0
aF420339.0
aF382207.0
aF333028.0
aF347781.0
aF351763.0
aF353317.0
aF353454.0
aF341979.0
aF347683.0
aF344530.0
aF352491.0
aF373254.0
aF365502.0
aF353377.0
aF383830.0
aF372169.0
aF372656.0
aF373857.0
aF367758.0
aF398892.0
aF407794.0
aF403903.0
aF387867.0
aF360177.0
aF365539.0
aF388084.0
aF410155.0
aF398222.0
aF380530.0
aF370441.0
aF382967.0
aF393327.0
aF395781.0
aF371016.0
aF352041.0
aF354690.0
aF345671.0
aF357951.0
aF375704.0
aF368059.0
aF352649.0
aF358371.0
aF390537.0
aF385103.0
aF367953.0
aF362514.0
aF383546.0
aF363367.0
aF358408.0
aF370846.0
aF361660.0
aF381367.0
aF394302.0
aF389983.0
aF384862.0
aF357606.0
aF392817.0
aF366707.0
aF357725.0
aF341975.0
aF342997.0
aF352397.0
aF385422.0
aF375097.0
aF368044.0
aF380500.0
aF377850.0
aF379317.0
aF358648.0
aF353005.0
aF353655.0
aF379675.0
aF397221.0
aF364179.0
aF346041.0
aF355506.0
aF345919.0
aF346873.0
aF343994.0
aF341102.0
aF349787.0
aF353847.0
aF391427.0
aF414438.0
aF397357.0
aF373848.0
aF367179.0
aF382981.0
aF372625.0
aF396581.0
aF381031.0
aF395469.0
aF379518.0
aF364807.0
aF375438.0
aF413599.0
aF403789.0
aF414147.0
aF381692.0
aF369612.0
aF360375.0
aF354609.0
aF388126.0
aF380081.0
aF348750.0
aF342988.0
aF355157.0
aF367088.0
aF380837.0
aF378603.0
aF351231.0
aF356579.0
aF389317.0
aF395677.0
aF365654.0
aF351518.0
aF369127.0
aF385302.0
aF363299.0
aF360075.0
aF367362.0
aF369598.0
aF351261.0
aF356832.0
aF363176.0
aF382989.0
aF405279.0
aF425267.0
aF438515.0
aF409234.0
aF416113.0
aF391767.0
aF398350.0
aF23203.0
asS'7'
p31
(lp32
F514278.0
aF564585.0
aF531666.0
aF423295.0
aF483905.0
aF498655.0
aF479255.0
aF386200.0
aF376528.0
aF348824.0
aF363813.0
aF357327.0
aF368359.0
aF357140.0
aF352807.0
aF355406.0
aF375502.0
aF370103.0
aF363722.0
aF363115.0
aF375346.0
aF389561.0
aF410234.0
aF406224.0
aF399919.0
aF410669.0
aF410249.0
aF419847.0
aF407156.0
aF414991.0
aF437985.0
aF410523.0
aF410955.0
aF395805.0
aF394526.0
aF397719.0
aF424924.0
aF400757.0
aF389883.0
aF404812.0
aF388502.0
aF398134.0
aF400070.0
aF419911.0
aF487361.0
aF451644.0
aF391571.0
aF449040.0
aF391921.0
aF373113.0
aF402831.0
aF420717.0
aF372423.0
aF363609.0
aF379616.0
aF439431.0
aF443442.0
aF428067.0
aF20023.0
aF0.0
aF0.0
aF273474.0
aF393130.0
aF430746.0
aF415521.0
aF435245.0
aF449790.0
aF436247.0
aF436512.0
aF403178.0
aF442396.0
aF437062.0
aF463786.0
aF513368.0
aF458419.0
aF488910.0
aF421468.0
aF396785.0
aF361013.0
aF357510.0
aF365275.0
aF350326.0
aF355305.0
aF347806.0
aF345345.0
aF345574.0
aF373535.0
aF371812.0
aF355541.0
aF365230.0
aF383464.0
aF382184.0
aF383125.0
aF365561.0
aF370529.0
aF386334.0
aF390218.0
aF429174.0
aF470761.0
aF466104.0
aF492973.0
aF495869.0
aF436359.0
aF381251.0
aF402972.0
aF434341.0
aF396598.0
aF393187.0
aF372227.0
aF353958.0
aF362905.0
aF385577.0
aF377145.0
aF359299.0
aF357365.0
aF355630.0
aF393223.0
aF371908.0
aF345436.0
aF347389.0
aF363753.0
aF371001.0
aF365744.0
aF371290.0
aF360771.0
aF348595.0
aF374596.0
aF433386.0
aF455184.0
aF440068.0
aF374248.0
aF443036.0
aF426644.0
aF387036.0
aF415175.0
aF403823.0
aF366849.0
aF401497.0
aF424241.0
aF436218.0
aF433619.0
aF406872.0
aF381369.0
aF386886.0
aF382576.0
aF359183.0
aF359222.0
aF387061.0
aF444536.0
aF453837.0
aF480646.0
aF452040.0
aF437328.0
aF420843.0
aF397097.0
aF486091.0
aF435368.0
aF508016.0
aF52121.0
asS'6'
p33
(lp34
F404366.0
aF440935.0
aF420921.0
aF457806.0
aF422383.0
aF428351.0
aF428226.0
aF436801.0
aF384748.0
aF373612.0
aF420439.0
aF412739.0
aF397482.0
aF421373.0
aF435144.0
aF431780.0
aF419661.0
aF416180.0
aF396659.0
aF386174.0
aF401600.0
aF415449.0
aF377035.0
aF370515.0
aF407472.0
aF395658.0
aF412402.0
aF411260.0
aF411647.0
aF417439.0
aF458628.0
aF486030.0
aF432804.0
aF500252.0
aF467644.0
aF461007.0
aF462681.0
aF454058.0
aF403542.0
aF440421.0
aF454441.0
aF471241.0
aF455606.0
aF491317.0
aF447062.0
aF397425.0
aF393013.0
aF387593.0
aF356084.0
aF362522.0
aF366714.0
aF381115.0
aF420187.0
aF400676.0
aF359679.0
aF352586.0
aF380724.0
aF377562.0
aF276208.0
aF0.0
aF0.0
aF43981.0
aF337291.0
aF360493.0
aF375824.0
aF346004.0
aF347035.0
aF342219.0
aF346909.0
aF351315.0
aF366343.0
aF385497.0
aF364864.0
aF376791.0
aF404003.0
aF365984.0
aF380107.0
aF361964.0
aF364564.0
aF367640.0
aF378457.0
aF358798.0
aF370598.0
aF378526.0
aF380862.0
aF381726.0
aF393135.0
aF385590.0
aF396226.0
aF398254.0
aF417389.0
aF385140.0
aF354395.0
aF351422.0
aF344654.0
aF295302.0
aF357123.0
aF372279.0
aF355576.0
aF389845.0
aF380814.0
aF356474.0
aF340170.0
aF344119.0
aF361426.0
aF390545.0
aF399800.0
aF420206.0
aF419697.0
aF409656.0
aF407914.0
aF410312.0
aF394842.0
aF366713.0
aF379424.0
aF356390.0
aF376070.0
aF377941.0
aF384042.0
aF387763.0
aF351337.0
aF367503.0
aF365370.0
aF362958.0
aF360130.0
aF385448.0
aF373010.0
aF368348.0
aF357192.0
aF364221.0
aF383888.0
aF390079.0
aF377277.0
aF379165.0
aF400056.0
aF388962.0
aF388223.0
aF399312.0
aF409663.0
aF406470.0
aF362747.0
aF349458.0
aF368920.0
aF393963.0
aF395567.0
aF378624.0
aF369733.0
aF374976.0
aF407263.0
aF412858.0
aF441372.0
aF428221.0
aF389394.0
aF367100.0
aF395155.0
aF406449.0
aF394932.0
aF385582.0
aF445329.0
aF437878.0
aF431526.0
aF417514.0
aF401622.0
aF394638.0
aF409370.0
aF380837.0
aF440663.0
aF432620.0
aF453036.0
aF440000.0
aF25901.0
asS'9'
p35
(lp36
F420248.0
aF397077.0
aF401667.0
aF377350.0
aF408558.0
aF387348.0
aF411704.0
aF394308.0
aF374225.0
aF350891.0
aF351465.0
aF349134.0
aF355045.0
aF375845.0
aF387853.0
aF387437.0
aF412765.0
aF380630.0
aF390298.0
aF406441.0
aF379781.0
aF382282.0
aF366835.0
aF371766.0
aF357293.0
aF355235.0
aF374853.0
aF395365.0
aF359616.0
aF351288.0
aF345528.0
aF358242.0
aF398112.0
aF438031.0
aF459685.0
aF447696.0
aF447815.0
aF431146.0
aF440124.0
aF364461.0
aF326401.0
aF362124.0
aF360517.0
aF336471.0
aF373017.0
aF334788.0
aF341289.0
aF90098.0
aF0.0
aF0.0
aF0.0
aF0.0
aF0.0
aF0.0
aF0.0
aF0.0
aF0.0
aF0.0
aF0.0
aF0.0
aF0.0
aF0.0
aF0.0
aF0.0
aF0.0
aF193484.0
aF313687.0
aF301078.0
aF215794.0
aF368835.0
aF273036.0
aF415192.0
aF398527.0
aF389227.0
aF398705.0
aF377314.0
aF353965.0
aF389727.0
aF395128.0
aF403763.0
aF406032.0
aF387822.0
aF385071.0
aF368309.0
aF405394.0
aF391596.0
aF407979.0
aF409252.0
aF404551.0
aF408909.0
aF445359.0
aF428903.0
aF346476.0
aF418837.0
aF430734.0
aF454125.0
aF450539.0
aF431745.0
aF436308.0
aF424518.0
aF442479.0
aF452746.0
aF396916.0
aF391287.0
aF375972.0
aF348558.0
aF356988.0
aF398830.0
aF390168.0
aF395498.0
aF430849.0
aF409504.0
aF430493.0
aF382290.0
aF408759.0
aF419511.0
aF465522.0
aF444102.0
aF385253.0
aF417077.0
aF390532.0
aF376521.0
aF413746.0
aF421970.0
aF473568.0
aF405630.0
aF448863.0
aF456642.0
aF435945.0
aF472691.0
aF508397.0
aF514121.0
aF507217.0
aF434510.0
aF477710.0
aF482571.0
aF545021.0
aF520108.0
aF538240.0
aF560782.0
aF72011.0
asS'8'
p37
(lp38
F456008.0
aF482049.0
aF413784.0
aF388480.0
aF378365.0
aF382226.0
aF436256.0
aF431778.0
aF430499.0
aF417660.0
aF460135.0
aF451971.0
aF409135.0
aF369461.0
aF352798.0
aF372460.0
aF362917.0
aF397000.0
aF397637.0
aF414201.0
aF437823.0
aF466288.0
aF479567.0
aF430290.0
aF384116.0
aF415577.0
aF416279.0
aF447824.0
aF421745.0
aF425658.0
aF411886.0
aF380144.0
aF382263.0
aF411254.0
aF372326.0
aF384686.0
aF386365.0
aF458611.0
aF433692.0
aF370386.0
aF410121.0
aF452072.0
aF440599.0
aF329811.0
aF0.0
aF0.0
aF63881.0
aF440969.0
aF414900.0
aF425154.0
aF366729.0
aF356184.0
aF384129.0
aF398031.0
aF403472.0
aF401818.0
aF410542.0
aF393959.0
aF393204.0
aF385616.0
aF364776.0
aF408426.0
aF386740.0
aF375814.0
aF375306.0
aF373831.0
aF397007.0
aF407781.0
aF391188.0
aF368984.0
aF404191.0
aF387135.0
aF380404.0
aF388201.0
aF406028.0
aF379918.0
aF354736.0
aF356865.0
aF343820.0
aF354566.0
aF384484.0
aF413058.0
aF378088.0
aF344637.0
aF352918.0
aF356096.0
aF337241.0
aF378901.0
aF358107.0
aF354293.0
aF367835.0
aF376246.0
aF370829.0
aF369025.0
aF395767.0
aF410228.0
aF402846.0
aF402982.0
aF420580.0
aF405530.0
aF370336.0
aF416424.0
aF421198.0
aF427087.0
aF381895.0
aF380374.0
aF361923.0
aF372479.0
aF372584.0
aF372554.0
aF369905.0
aF345125.0
aF345278.0
aF342749.0
aF342913.0
aF345029.0
aF361208.0
aF388034.0
aF390468.0
aF393484.0
aF393674.0
aF388822.0
aF378378.0
aF405881.0
aF425007.0
aF425376.0
aF418988.0
aF395907.0
aF421208.0
aF400094.0
aF392105.0
aF423362.0
aF384515.0
aF419007.0
aF456271.0
aF422466.0
aF416803.0
aF376520.0
aF378074.0
aF435404.0
aF460679.0
aF443620.0
aF510219.0
aF549232.0
aF555879.0
aF142688.0
asS'N21'
p39
(lp40
F1000000.0
aF1000000.0
aF1000000.0
aF1000000.0
aF1000000.0
aF1000000.0
aF1000000.0
aF1000000.0
aF1000000.0
aF511193.0
aF250000.0
aF811871.0
aF1000000.0
aF1000000.0
aF338129.0
aF0.0
aF0.0
aF0.0
aF0.0
aF0.0
aF0.0
aF0.0
aF0.0
aF0.0
aF0.0
aF0.0
aF0.0
aF0.0
aF0.0
aF0.0
aF0.0
aF0.0
aF0.0
aF30.0
aF0.0
aF0.0
aF0.0
aF0.0
aF0.0
aF0.0
aF10.0
aF0.0
aF44441.0
aF7559.0
aF50020.0
aF0.0
aF0.0
aF10000.0
asS'N20'
p41
(lp42
F60000.0
aF0.0
aF0.0
aF0.0
aF0.0
aF0.0
aF0.0
aF0.0
aF0.0
aF0.0
aF0.0
aF0.0
aF0.0
aF0.0
aF0.0
aF0.0
aF0.0
aF0.0
aF0.0
aF0.0
aF0.0
aF0.0
aF0.0
aF0.0
aF0.0
aF0.0
aF680431.0
aF1000000.0
aF1000000.0
aF569569.0
aF0.0
aF0.0
aF0.0
aF0.0
aF50000.0
aF0.0
aF0.0
aF0.0
aF0.0
aF0.0
aF0.0
aF0.0
aF0.0
aF0.0
aF0.0
aF0.0
aF0.0
aF0.0
aF0.0
aF0.0
aF0.0
aF0.0
aF0.0
aF0.0
aF0.0
aF0.0
aF0.0
aF0.0
aF0.0
aF0.0
aF0.0
aF100000.0
aF25520.0
asS'N12'
p43
(lp44
F110000.0
aF0.0
aF0.0
aF0.0
aF0.0
aF0.0
aF2.0
aF50000.0
aF0.0
aF0.0
aF0.0
aF0.0
aF0.0
aF0.0
aF0.0
aF0.0
aF0.0
aF0.0
aF0.0
aF0.0
aF0.0
aF0.0
aF0.0
aF0.0
aF0.0
aF0.0
aF0.0
aF0.0
aF0.0
aF0.0
aF0.0
aF0.0
aF0.0
aF0.0
aF143306.0
aF1000000.0
aF1000000.0
aF856694.0
aF0.0
aF0.0
aF0.0
aF0.0
aF0.0
aF0.0
aF0.0
aF0.0
aF0.0
aF0.0
aF0.0
aF0.0
aF0.0
aF0.0
aF0.0
aF0.0
aF0.0
aF0.0
aF0.0
aF0.0
aF0.0
aF0.0
aF0.0
aF0.0
aF0.0
aF0.0
aF0.0
aF0.0
aF0.0
aF0.0
aF0.0
aF0.0
aF0.0
aF0.0
aF0.0
aF0.0
aF0.0
aF0.0
aF0.0
aF0.0
aF0.0
aF0.0
aF0.0
aF0.0
aF0.0
aF0.0
aF0.0
aF0.0
aF0.0
aF0.0
aF0.0
aF0.0
aF0.0
aF0.0
aF0.0
aF0.0
aF0.0
aF0.0
aF0.0
aF0.0
aF0.0
aF0.0
aF0.0
aF0.0
aF0.0
aF0.0
aF0.0
aF0.0
aF0.0
aF0.0
aF0.0
aF50000.0
aF0.0
aF0.0
aF0.0
aF0.0
aF0.0
aF0.0
aF0.0
aF0.0
aF0.0
aF0.0
aF0.0
aF200.0
aF50000.0
aF300.0
aF0.0
aF0.0
aF0.0
aF0.0
aF0.0
aF0.0
aF0.0
aF0.0
aF10000.0
asS'N13'
p45
(lp46
F1000000.0
aF1000000.0
aF1000000.0
aF1000000.0
aF1000000.0
aF1000000.0
aF1000000.0
aF1000000.0
aF1000000.0
aF1000000.0
aF1000000.0
aF1000000.0
aF1000000.0
aF1000000.0
aF1000000.0
aF1000000.0
aF1000000.0
aF1000000.0
aF1000000.0
aF20000.0
aF0.0
aF0.0
aF0.0
aF0.0
aF0.0
aF0.0
aF0.0
aF0.0
aF0.0
aF0.0
aF0.0
aF0.0
aF0.0
aF0.0
aF0.0
aF0.0
aF0.0
aF0.0
aF0.0
aF0.0
aF0.0
aF0.0
aF0.0
aF0.0
aF0.0
aF0.0
aF0.0
aF0.0
aF0.0
aF0.0
aF0.0
aF0.0
aF0.0
aF0.0
aF0.0
aF0.0
aF0.0
aF0.0
aF0.0
aF0.0
aF0.0
aF0.0
aF0.0
aF0.0
aF0.0
aF0.0
aF0.0
aF0.0
aF0.0
aF0.0
aF0.0
aF0.0
aF0.0
aF0.0
aF0.0
aF0.0
aF0.0
aF0.0
aF0.0
aF0.0
aF0.0
aF0.0
aF0.0
aF0.0
aF0.0
aF0.0
aF150000.0
aF0.0
aF0.0
aF0.0
aF0.0
aF0.0
aF0.0
aF0.0
aF0.0
aF0.0
aF0.0
aF0.0
aF0.0
aF0.0
aF0.0
aF0.0
aF0.0
aF0.0
aF0.0
aF0.0
aF0.0
aF0.0
aF0.0
aF0.0
aF0.0
aF0.0
aF150000.0
aF0.0
aF60000.0
asS'N10'
p47
(lp48
F60000.0
aF0.0
aF0.0
aF0.0
aF0.0
aF0.0
aF0.0
aF0.0
aF0.0
aF0.0
aF0.0
aF0.0
aF0.0
aF0.0
aF0.0
aF0.0
aF0.0
aF25325.0
aF24675.0
aF0.0
aF0.0
aF0.0
aF0.0
aF0.0
aF0.0
aF0.0
aF0.0
aF0.0
aF0.0
aF0.0
aF0.0
aF0.0
aF0.0
aF0.0
aF0.0
aF0.0
aF0.0
aF1.0
aF50000.0
aF845065.0
aF1000000.0
aF1000000.0
aF404935.0
aF0.0
aF0.0
aF0.0
aF50000.0
aF200000.0
aF50000.0
aF100000.0
aF0.0
aF100000.0
aF0.0
aF0.0
aF2.0
aF0.0
aF0.0
aF0.0
aF0.0
aF0.0
aF1.0
aF1.0
aF0.0
aF0.0
aF3.0
aF0.0
aF0.0
aF0.0
aF0.0
aF0.0
aF0.0
aF0.0
aF0.0
aF0.0
aF0.0
aF0.0
aF0.0
aF0.0
aF0.0
aF0.0
aF0.0
aF0.0
aF0.0
aF0.0
aF0.0
aF0.0
aF0.0
aF0.0
aF0.0
aF0.0
aF0.0
aF0.0
aF0.0
aF0.0
aF0.0
aF0.0
aF0.0
aF0.0
aF0.0
aF0.0
aF0.0
aF0.0
aF0.0
aF0.0
aF0.0
aF0.0
aF0.0
aF0.0
aF0.0
aF0.0
aF0.0
aF0.0
aF0.0
aF0.0
aF0.0
aF0.0
aF1.0
aF0.0
aF0.0
aF0.0
aF0.0
aF0.0
aF0.0
aF0.0
aF0.0
aF50000.0
aF0.0
aF0.0
aF150000.0
aF0.0
aF0.0
aF0.0
aF0.0
aF100000.0
aF10000.0
asS'N8'
p49
(lp50
F10000.0
aF0.0
aF0.0
aF0.0
aF0.0
aF0.0
aF0.0
aF50000.0
aF0.0
aF0.0
aF0.0
aF0.0
aF50000.0
aF0.0
aF0.0
aF0.0
aF0.0
aF0.0
aF0.0
aF0.0
aF0.0
aF0.0
aF0.0
aF0.0
aF0.0
aF0.0
aF0.0
aF0.0
aF0.0
aF0.0
aF0.0
aF0.0
aF0.0
aF0.0
aF0.0
aF0.0
aF0.0
aF0.0
aF0.0
aF0.0
aF0.0
aF0.0
aF0.0
aF161113.0
aF1000000.0
aF1000000.0
aF838887.0
aF0.0
aF5100.0
aF0.0
aF0.0
aF0.0
aF0.0
aF0.0
aF0.0
aF0.0
aF0.0
aF0.0
aF0.0
aF0.0
aF0.0
aF0.0
aF0.0
aF0.0
aF0.0
aF0.0
aF0.0
aF0.0
aF0.0
aF0.0
aF0.0
aF0.0
aF0.0
aF0.0
aF0.0
aF0.0
aF0.0
aF0.0
aF0.0
aF0.0
aF0.0
aF0.0
aF0.0
aF0.0
aF0.0
aF0.0
aF150000.0
aF0.0
aF0.0
aF0.0
aF0.0
aF0.0
aF0.0
aF0.0
aF0.0
aF0.0
aF0.0
aF0.0
aF0.0
aF0.0
aF0.0
aF0.0
aF0.0
aF0.0
aF0.0
aF0.0
aF0.0
aF0.0
aF0.0
aF0.0
aF0.0
aF0.0
aF0.0
aF0.0
aF0.0
aF0.0
aF0.0
aF0.0
aF0.0
aF0.0
aF0.0
aF0.0
aF0.0
aF0.0
aF0.0
aF0.0
aF0.0
aF0.0
aF0.0
aF0.0
aF0.0
aF0.0
aF0.0
aF0.0
aF0.0
aF0.0
aF0.0
aF0.0
aF0.0
aF0.0
aF0.0
aF0.0
aF50000.0
aF0.0
aF0.0
aF60000.0
asS'N9'
p51
(lp52
F10000.0
aF0.0
aF0.0
aF0.0
aF0.0
aF0.0
aF0.0
aF0.0
aF0.0
aF0.0
aF0.0
aF0.0
aF0.0
aF0.0
aF0.0
aF0.0
aF0.0
aF0.0
aF0.0
aF0.0
aF0.0
aF0.0
aF0.0
aF0.0
aF0.0
aF0.0
aF0.0
aF0.0
aF0.0
aF0.0
aF0.0
aF0.0
aF0.0
aF0.0
aF0.0
aF0.0
aF0.0
aF0.0
aF0.0
aF75204.0
aF174796.0
aF100000.0
aF50000.0
aF150000.0
aF100000.0
aF150000.0
aF150000.0
aF782321.0
aF1000000.0
aF1000000.0
aF1000000.0
aF1000000.0
aF1000000.0
aF1000000.0
aF1000000.0
aF1000000.0
aF1000000.0
aF1000000.0
aF1000000.0
aF1000000.0
aF1000000.0
aF1000000.0
aF1000000.0
aF1000000.0
aF1000000.0
aF517679.0
aF200000.0
aF262002.0
aF437998.0
aF50000.0
aF300000.0
aF0.0
aF0.0
aF0.0
aF0.0
aF0.0
aF0.0
aF0.0
aF0.0
aF0.0
aF0.0
aF0.0
aF0.0
aF0.0
aF0.0
aF0.0
aF0.0
aF0.0
aF0.0
aF0.0
aF0.0
aF0.0
aF250000.0
aF0.0
aF0.0
aF0.0
aF0.0
aF0.0
aF0.0
aF0.0
aF0.0
aF0.0
aF0.0
aF0.0
aF0.0
aF0.0
aF0.0
aF0.0
aF0.0
aF0.0
aF0.0
aF0.0
aF0.0
aF0.0
aF0.0
aF0.0
aF0.0
aF0.0
aF0.0
aF0.0
aF0.0
aF0.0
aF0.0
aF0.0
aF0.0
aF0.0
aF0.0
aF0.0
aF0.0
aF0.0
aF0.0
aF0.0
aF0.0
aF150000.0
aF0.0
aF0.0
aF0.0
aF50000.0
aF0.0
aF50000.0
aF60000.0
asS'N11'
p53
(lp54
F60000.0
aF50000.0
aF0.0
aF0.0
aF0.0
aF0.0
aF0.0
aF0.0
aF0.0
aF0.0
aF0.0
aF0.0
aF0.0
aF0.0
aF0.0
aF0.0
aF0.0
aF0.0
aF0.0
aF0.0
aF0.0
aF0.0
aF0.0
aF0.0
aF0.0
aF0.0
aF0.0
aF0.0
aF0.0
aF0.0
aF0.0
aF0.0
aF0.0
aF0.0
aF0.0
aF0.0
aF0.0
aF0.0
aF0.0
aF0.0
aF0.0
aF0.0
aF0.0
aF0.0
aF0.0
aF0.0
aF0.0
aF0.0
aF0.0
aF0.0
aF216147.0
aF496648.0
aF1000000.0
aF1000000.0
aF694205.0
aF0.0
aF0.0
aF0.0
aF0.0
aF0.0
aF0.0
aF0.0
aF0.0
aF0.0
aF0.0
aF0.0
aF0.0
aF0.0
aF0.0
aF100000.0
aF0.0
aF0.0
aF0.0
aF0.0
aF0.0
aF0.0
aF0.0
aF0.0
aF0.0
aF0.0
aF0.0
aF0.0
aF0.0
aF0.0
aF0.0
aF0.0
aF0.0
aF50000.0
aF0.0
aF0.0
aF0.0
aF0.0
aF0.0
aF0.0
aF0.0
aF0.0
aF150000.0
aF0.0
aF0.0
aF0.0
aF0.0
aF0.0
aF0.0
aF0.0
aF0.0
aF0.0
aF0.0
aF0.0
aF0.0
aF0.0
aF0.0
aF0.0
aF0.0
aF0.0
aF0.0
aF0.0
aF0.0
aF0.0
aF0.0
aF0.0
aF0.0
aF0.0
aF0.0
aF0.0
aF0.0
aF0.0
aF0.0
aF0.0
aF0.0
aF0.0
aF0.0
aF0.0
aF0.0
aF0.0
aF6516.0
asS'N22'
p55
(lp56
F1000000.0
aF1000000.0
aF1000000.0
aF1000000.0
aF1000000.0
aF1000000.0
aF1000000.0
aF1000000.0
aF1000000.0
aF1000000.0
aF1000000.0
aF1000000.0
aF1000000.0
aF1000000.0
aF1000000.0
aF1000000.0
aF200000.0
aF0.0
aF0.0
aF21.0
aF100000.0
aF0.0
aF0.0
aF0.0
aF0.0
aF0.0
aF0.0
aF0.0
aF0.0
aF0.0
aF0.0
aF0.0
aF0.0
aF0.0
aF0.0
aF0.0
aF0.0
aF0.0
aF0.0
aF0.0
aF0.0
aF0.0
aF0.0
aF0.0
aF0.0
aF0.0
aF0.0
aF0.0
aF0.0
aF0.0
aF60000.0
asS'Y'
p57
(lp58
F0.0
aF0.0
aF134059.0
aF358644.0
aF360764.0
aF359788.0
aF398569.0
aF409424.0
aF389486.0
aF395920.0
aF43096.0
aF0.0
aF0.0
aF328194.0
aF408762.0
aF387778.0
aF388385.0
aF389397.0
aF374976.0
aF389587.0
aF369553.0
aF388540.0
aF374117.0
aF376140.0
aF398876.0
aF387084.0
aF399729.0
aF399159.0
aF317380.0
aF0.0
aF0.0
aF0.0
aF0.0
aF0.0
aF0.0
aF0.0
aF0.0
aF0.0
aF0.0
aF0.0
aF0.0
aF0.0
aF0.0
aF0.0
aF0.0
aF0.0
aF0.0
aF0.0
aF0.0
aF0.0
aF0.0
aF0.0
aF0.0
aF0.0
aF0.0
aF0.0
aF0.0
aF0.0
aF13611.0
asS'X'
p59
(lp60
F409332.0
aF414559.0
aF433513.0
aF426039.0
aF376470.0
aF378360.0
aF400466.0
aF378279.0
aF390275.0
aF446017.0
aF387579.0
aF392586.0
aF397970.0
aF410442.0
aF381289.0
aF395605.0
aF410882.0
aF417778.0
aF420020.0
aF428343.0
aF396080.0
aF376613.0
aF383965.0
aF407002.0
aF412255.0
aF382389.0
aF363593.0
aF364738.0
aF363203.0
aF363390.0
aF393229.0
aF378131.0
aF357809.0
aF357660.0
aF361775.0
aF367882.0
aF366597.0
aF369496.0
aF398472.0
aF467098.0
aF442087.0
aF408601.0
aF383097.0
aF392457.0
aF406962.0
aF392572.0
aF414245.0
aF445098.0
aF473969.0
aF401298.0
aF390676.0
aF398526.0
aF406499.0
aF440226.0
aF424275.0
aF396041.0
aF394261.0
aF384382.0
aF237360.0
aF0.0
aF0.0
aF120031.0
aF383594.0
aF396315.0
aF402153.0
aF386924.0
aF379990.0
aF406548.0
aF450357.0
aF410569.0
aF444191.0
aF423473.0
aF395428.0
aF407882.0
aF388867.0
aF384241.0
aF371939.0
aF386018.0
aF366889.0
aF371429.0
aF366101.0
aF362194.0
aF362994.0
aF358133.0
aF369282.0
aF365800.0
aF359101.0
aF358859.0
aF355425.0
aF357530.0
aF362928.0
aF360155.0
aF363591.0
aF360606.0
aF358540.0
aF371812.0
aF371889.0
aF371083.0
aF357999.0
aF386980.0
aF414570.0
aF399663.0
aF404481.0
aF406838.0
aF373267.0
aF376005.0
aF411386.0
aF390892.0
aF382638.0
aF403222.0
aF387664.0
aF391632.0
aF376642.0
aF347024.0
aF392969.0
aF355927.0
aF374809.0
aF396741.0
aF440960.0
aF415419.0
aF361276.0
aF366683.0
aF395123.0
aF385590.0
aF365799.0
aF359191.0
aF356137.0
aF364981.0
aF410636.0
aF425719.0
aF394047.0
aF390583.0
aF411560.0
aF405845.0
aF418748.0
aF411781.0
aF402298.0
aF381862.0
aF387986.0
aF397823.0
aF387061.0
aF375410.0
aF373935.0
aF344425.0
aF376400.0
aF376839.0
aF372387.0
aF387314.0
aF398546.0
aF408613.0
aF425227.0
aF403004.0
aF478121.0
aF519866.0
aF107892.0
asS'N2'
p61
(lp62
F10000.0
aF0.0
aF0.0
aF50000.0
aF0.0
aF100000.0
aF0.0
aF0.0
aF0.0
aF0.0
aF0.0
aF0.0
aF0.0
aF0.0
aF0.0
aF0.0
aF50000.0
aF0.0
aF0.0
aF0.0
aF0.0
aF25000.0
aF0.0
aF0.0
aF0.0
aF0.0
aF0.0
aF0.0
aF0.0
aF0.0
aF0.0
aF855.0
aF0.0
aF2000.0
aF0.0
aF0.0
aF0.0
aF0.0
aF0.0
aF0.0
aF0.0
aF0.0
aF0.0
aF0.0
aF0.0
aF0.0
aF0.0
aF0.0
aF0.0
aF0.0
aF0.0
aF0.0
aF0.0
aF0.0
aF0.0
aF0.0
aF0.0
aF0.0
aF0.0
aF0.0
aF0.0
aF0.0
aF0.0
aF0.0
aF0.0
aF0.0
aF0.0
aF0.0
aF0.0
aF0.0
aF0.0
aF0.0
aF0.0
aF0.0
aF0.0
aF0.0
aF0.0
aF0.0
aF0.0
aF0.0
aF0.0
aF0.0
aF0.0
aF0.0
aF0.0
aF0.0
aF0.0
aF50000.0
aF0.0
aF200000.0
aF504897.0
aF595103.0
aF673829.0
aF1000000.0
aF1000000.0
aF326171.0
aF0.0
aF0.0
aF0.0
aF0.0
aF0.0
aF0.0
aF0.0
aF0.0
aF0.0
aF0.0
aF0.0
aF0.0
aF0.0
aF0.0
aF142000.0
aF0.0
aF0.0
aF0.0
aF0.0
aF0.0
aF0.0
aF0.0
aF0.0
aF0.0
aF0.0
aF0.0
aF0.0
aF0.0
aF0.0
aF0.0
aF0.0
aF0.0
aF0.0
aF0.0
aF0.0
aF0.0
aF0.0
aF0.0
aF0.0
aF0.0
aF0.0
aF0.0
aF0.0
aF0.0
aF0.0
aF0.0
aF0.0
aF0.0
aF0.0
aF0.0
aF0.0
aF0.0
aF0.0
aF100000.0
aF0.0
aF0.0
aF0.0
aF0.0
aF0.0
aF0.0
aF0.0
aF0.0
aF0.0
aF0.0
aF0.0
aF0.0
aF0.0
aF0.0
aF0.0
aF0.0
aF0.0
aF0.0
aF0.0
aF0.0
aF0.0
aF0.0
aF0.0
aF0.0
aF0.0
aF0.0
aF0.0
aF0.0
aF0.0
aF0.0
aF0.0
aF0.0
aF0.0
aF0.0
aF0.0
aF0.0
aF0.0
aF0.0
aF0.0
aF0.0
aF0.0
aF0.0
aF0.0
aF0.0
aF0.0
aF0.0
aF0.0
aF0.0
aF0.0
aF0.0
aF0.0
aF0.0
aF0.0
aF0.0
aF0.0
aF0.0
aF0.0
aF0.0
aF0.0
aF0.0
aF0.0
aF0.0
aF0.0
aF0.0
aF0.0
aF0.0
aF0.0
aF0.0
aF0.0
aF0.0
aF0.0
aF0.0
aF0.0
aF0.0
aF0.0
aF0.0
aF0.0
aF0.0
aF0.0
aF0.0
aF0.0
aF0.0
aF0.0
aF0.0
aF50000.0
aF0.0
aF0.0
aF0.0
aF0.0
aF30000.0
aF25000.0
aF0.0
aF60000.0
asS'N3'
p63
(lp64
F60000.0
aF0.0
aF0.0
aF0.0
aF0.0
aF0.0
aF0.0
aF0.0
aF0.0
aF0.0
aF0.0
aF0.0
aF0.0
aF0.0
aF0.0
aF0.0
aF0.0
aF0.0
aF0.0
aF0.0
aF0.0
aF0.0
aF0.0
aF0.0
aF0.0
aF0.0
aF0.0
aF0.0
aF0.0
aF0.0
aF0.0
aF0.0
aF0.0
aF0.0
aF0.0
aF0.0
aF0.0
aF0.0
aF0.0
aF0.0
aF0.0
aF0.0
aF0.0
aF0.0
aF0.0
aF0.0
aF0.0
aF0.0
aF0.0
aF0.0
aF0.0
aF0.0
aF0.0
aF0.0
aF0.0
aF0.0
aF0.0
aF0.0
aF0.0
aF0.0
aF2.0
aF0.0
aF0.0
aF0.0
aF0.0
aF0.0
aF100000.0
aF0.0
aF0.0
aF0.0
aF0.0
aF0.0
aF0.0
aF0.0
aF0.0
aF0.0
aF0.0
aF0.0
aF0.0
aF0.0
aF0.0
aF0.0
aF0.0
aF0.0
aF0.0
aF0.0
aF0.0
aF0.0
aF0.0
aF0.0
aF495146.0
aF1000000.0
aF1000000.0
aF504854.0
aF0.0
aF0.0
aF0.0
aF0.0
aF0.0
aF0.0
aF0.0
aF0.0
aF0.0
aF0.0
aF0.0
aF0.0
aF0.0
aF0.0
aF0.0
aF0.0
aF0.0
aF0.0
aF0.0
aF0.0
aF0.0
aF0.0
aF0.0
aF0.0
aF0.0
aF0.0
aF0.0
aF0.0
aF0.0
aF0.0
aF0.0
aF0.0
aF0.0
aF0.0
aF0.0
aF0.0
aF0.0
aF0.0
aF0.0
aF0.0
aF0.0
aF0.0
aF0.0
aF0.0
aF0.0
aF0.0
aF0.0
aF0.0
aF0.0
aF0.0
aF0.0
aF0.0
aF0.0
aF0.0
aF0.0
aF0.0
aF0.0
aF0.0
aF0.0
aF0.0
aF0.0
aF0.0
aF0.0
aF0.0
aF0.0
aF0.0
aF0.0
aF0.0
aF0.0
aF0.0
aF0.0
aF0.0
aF0.0
aF0.0
aF0.0
aF0.0
aF0.0
aF0.0
aF0.0
aF0.0
aF0.0
aF0.0
aF0.0
aF0.0
aF0.0
aF0.0
aF0.0
aF0.0
aF0.0
aF0.0
aF0.0
aF0.0
aF0.0
aF0.0
aF0.0
aF0.0
aF0.0
aF0.0
aF0.0
aF0.0
aF5290.0
aF0.0
aF0.0
aF22430.0
asS'N4'
p65
(lp66
F10000.0
aF55500.0
aF0.0
aF0.0
aF0.0
aF0.0
aF0.0
aF0.0
aF19000.0
aF50000.0
aF0.0
aF0.0
aF0.0
aF0.0
aF0.0
aF0.0
aF0.0
aF0.0
aF0.0
aF0.0
aF0.0
aF0.0
aF0.0
aF0.0
aF0.0
aF0.0
aF0.0
aF0.0
aF0.0
aF0.0
aF0.0
aF16500.0
aF6000.0
aF0.0
aF0.0
aF0.0
aF0.0
aF0.0
aF0.0
aF0.0
aF700.0
aF0.0
aF0.0
aF0.0
aF0.0
aF0.0
aF0.0
aF0.0
aF0.0
aF489883.0
aF1000000.0
aF1000000.0
aF660117.0
aF0.0
aF0.0
aF0.0
aF0.0
aF0.0
aF0.0
aF50000.0
aF0.0
aF0.0
aF0.0
aF0.0
aF0.0
aF0.0
aF0.0
aF0.0
aF0.0
aF0.0
aF0.0
aF0.0
aF0.0
aF0.0
aF0.0
aF24900.0
aF0.0
aF0.0
aF0.0
aF0.0
aF0.0
aF0.0
aF0.0
aF0.0
aF0.0
aF0.0
aF0.0
aF0.0
aF0.0
aF0.0
aF0.0
aF0.0
aF0.0
aF0.0
aF0.0
aF0.0
aF0.0
aF0.0
aF0.0
aF0.0
aF0.0
aF0.0
aF0.0
aF0.0
aF0.0
aF0.0
aF0.0
aF0.0
aF0.0
aF0.0
aF0.0
aF0.0
aF0.0
aF0.0
aF0.0
aF0.0
aF0.0
aF0.0
aF0.0
aF0.0
aF0.0
aF0.0
aF0.0
aF0.0
aF0.0
aF0.0
aF0.0
aF0.0
aF0.0
aF0.0
aF0.0
aF0.0
aF0.0
aF0.0
aF0.0
aF0.0
aF0.0
aF0.0
aF0.0
aF0.0
aF0.0
aF0.0
aF0.0
aF0.0
aF0.0
aF0.0
aF0.0
aF0.0
aF0.0
aF0.0
aF0.0
aF0.0
aF0.0
aF0.0
aF0.0
aF0.0
aF0.0
aF0.0
aF0.0
aF0.0
aF0.0
aF0.0
aF0.0
aF0.0
aF0.0
aF0.0
aF0.0
aF0.0
aF0.0
aF0.0
aF0.0
aF0.0
aF0.0
aF0.0
aF0.0
aF0.0
aF0.0
aF0.0
aF0.0
aF0.0
aF0.0
aF0.0
aF0.0
aF0.0
aF0.0
aF0.0
aF0.0
aF0.0
aF0.0
aF0.0
aF110000.0
asS'N5'
p67
(lp68
F10000.0
aF0.0
aF0.0
aF0.0
aF0.0
aF0.0
aF0.0
aF0.0
aF0.0
aF0.0
aF0.0
aF0.0
aF0.0
aF0.0
aF0.0
aF0.0
aF0.0
aF50000.0
aF0.0
aF0.0
aF0.0
aF0.0
aF0.0
aF0.0
aF0.0
aF0.0
aF0.0
aF0.0
aF0.0
aF0.0
aF0.0
aF0.0
aF0.0
aF0.0
aF0.0
aF0.0
aF0.0
aF0.0
aF0.0
aF0.0
aF0.0
aF0.0
aF0.0
aF0.0
aF0.0
aF0.0
aF594359.0
aF1000000.0
aF1000000.0
aF405641.0
aF0.0
aF0.0
aF0.0
aF0.0
aF0.0
aF0.0
aF0.0
aF0.0
aF0.0
aF0.0
aF0.0
aF0.0
aF0.0
aF0.0
aF0.0
aF0.0
aF0.0
aF0.0
aF0.0
aF0.0
aF0.0
aF0.0
aF0.0
aF0.0
aF0.0
aF0.0
aF0.0
aF0.0
aF0.0
aF0.0
aF0.0
aF0.0
aF0.0
aF0.0
aF0.0
aF0.0
aF0.0
aF0.0
aF0.0
aF0.0
aF0.0
aF50000.0
aF0.0
aF0.0
aF0.0
aF0.0
aF0.0
aF0.0
aF0.0
aF0.0
aF0.0
aF0.0
aF0.0
aF0.0
aF0.0
aF0.0
aF0.0
aF0.0
aF0.0
aF0.0
aF0.0
aF0.0
aF0.0
aF0.0
aF0.0
aF0.0
aF0.0
aF0.0
aF0.0
aF0.0
aF0.0
aF0.0
aF0.0
aF0.0
aF0.0
aF0.0
aF0.0
aF0.0
aF0.0
aF0.0
aF0.0
aF0.0
aF0.0
aF0.0
aF0.0
aF0.0
aF0.0
aF0.0
aF50000.0
aF0.0
aF0.0
aF0.0
aF0.0
aF0.0
aF0.0
aF0.0
aF0.0
aF0.0
aF0.0
aF0.0
aF0.0
aF0.0
aF0.0
aF0.0
aF0.0
aF50000.0
aF0.0
aF0.0
aF0.0
aF0.0
aF0.0
aF0.0
aF0.0
aF0.0
aF0.0
aF0.0
aF0.0
aF0.0
aF0.0
aF0.0
aF0.0
aF0.0
aF0.0
aF0.0
aF0.0
aF0.0
aF0.0
aF0.0
aF0.0
aF10000.0
asS'N6'
p69
(lp70
F60000.0
aF0.0
aF0.0
aF0.0
aF0.0
aF0.0
aF0.0
aF0.0
aF0.0
aF0.0
aF0.0
aF0.0
aF0.0
aF0.0
aF0.0
aF0.0
aF0.0
aF0.0
aF0.0
aF0.0
aF0.0
aF0.0
aF0.0
aF0.0
aF0.0
aF0.0
aF0.0
aF0.0
aF0.0
aF0.0
aF0.0
aF0.0
aF0.0
aF0.0
aF0.0
aF0.0
aF0.0
aF0.0
aF0.0
aF0.0
aF0.0
aF0.0
aF0.0
aF0.0
aF0.0
aF0.0
aF0.0
aF0.0
aF0.0
aF0.0
aF0.0
aF0.0
aF0.0
aF0.0
aF0.0
aF0.0
aF0.0
aF0.0
aF269834.0
aF1000000.0
aF1000000.0
aF880166.0
aF50000.0
aF0.0
aF0.0
aF0.0
aF0.0
aF0.0
aF0.0
aF0.0
aF0.0
aF0.0
aF0.0
aF0.0
aF0.0
aF0.0
aF0.0
aF0.0
aF0.0
aF0.0
aF0.0
aF0.0
aF0.0
aF0.0
aF0.0
aF0.0
aF0.0
aF0.0
aF0.0
aF0.0
aF0.0
aF0.0
aF0.0
aF0.0
aF0.0
aF150000.0
aF0.0
aF0.0
aF0.0
aF0.0
aF0.0
aF0.0
aF0.0
aF0.0
aF0.0
aF0.0
aF0.0
aF0.0
aF0.0
aF0.0
aF0.0
aF0.0
aF0.0
aF0.0
aF0.0
aF1.0
aF0.0
aF0.0
aF0.0
aF0.0
aF0.0
aF0.0
aF0.0
aF0.0
aF0.0
aF0.0
aF0.0
aF0.0
aF0.0
aF0.0
aF0.0
aF0.0
aF0.0
aF0.0
aF0.0
aF0.0
aF0.0
aF0.0
aF0.0
aF0.0
aF0.0
aF0.0
aF0.0
aF0.0
aF0.0
aF0.0
aF0.0
aF0.0
aF0.0
aF0.0
aF0.0
aF0.0
aF0.0
aF0.0
aF0.0
aF0.0
aF0.0
aF100000.0
aF0.0
aF0.0
aF0.0
aF0.0
aF0.0
aF0.0
aF0.0
aF0.0
aF0.0
aF57927.0
aF42073.0
aF0.0
aF60000.0
asS'N7'
p71
(lp72
F60000.0
aF0.0
aF0.0
aF0.0
aF0.0
aF0.0
aF0.0
aF0.0
aF0.0
aF0.0
aF0.0
aF0.0
aF0.0
aF0.0
aF0.0
aF0.0
aF0.0
aF0.0
aF0.0
aF0.0
aF0.0
aF0.0
aF0.0
aF0.0
aF0.0
aF0.0
aF0.0
aF0.0
aF0.0
aF0.0
aF0.0
aF0.0
aF0.0
aF0.0
aF0.0
aF0.0
aF0.0
aF0.0
aF0.0
aF0.0
aF0.0
aF0.0
aF0.0
aF0.0
aF0.0
aF0.0
aF0.0
aF0.0
aF0.0
aF0.0
aF40000.0
aF0.0
aF0.0
aF0.0
aF0.0
aF0.0
aF0.0
aF0.0
aF945669.0
aF1000000.0
aF1000000.0
aF254331.0
aF0.0
aF0.0
aF0.0
aF0.0
aF0.0
aF0.0
aF0.0
aF0.0
aF0.0
aF0.0
aF0.0
aF0.0
aF50000.0
aF0.0
aF0.0
aF0.0
aF0.0
aF0.0
aF0.0
aF0.0
aF0.0
aF0.0
aF0.0
aF0.0
aF0.0
aF0.0
aF0.0
aF0.0
aF0.0
aF0.0
aF0.0
aF0.0
aF0.0
aF0.0
aF0.0
aF0.0
aF0.0
aF0.0
aF50000.0
aF0.0
aF0.0
aF0.0
aF0.0
aF0.0
aF0.0
aF0.0
aF0.0
aF0.0
aF0.0
aF0.0
aF0.0
aF0.0
aF0.0
aF0.0
aF0.0
aF0.0
aF0.0
aF0.0
aF0.0
aF0.0
aF0.0
aF0.0
aF0.0
aF0.0
aF0.0
aF0.0
aF0.0
aF0.0
aF100000.0
aF0.0
aF0.0
aF0.0
aF0.0
aF0.0
aF0.0
aF0.0
aF0.0
aF25000.0
aF0.0
aF0.0
aF100000.0
aF50000.0
aF0.0
aF0.0
aF0.0
aF0.0
aF0.0
aF0.0
aF0.0
aF0.0
aF0.0
aF0.0
aF100000.0
aF0.0
aF0.0
aF0.0
aF10000.0
asS'11'
p73
(lp74
F515194.0
aF537349.0
aF536927.0
aF473199.0
aF401241.0
aF382164.0
aF421605.0
aF400561.0
aF445469.0
aF424752.0
aF414780.0
aF430131.0
aF436203.0
aF408460.0
aF400214.0
aF415764.0
aF382217.0
aF453457.0
aF424223.0
aF432956.0
aF409740.0
aF371286.0
aF364159.0
aF359805.0
aF352694.0
aF352487.0
aF363914.0
aF396230.0
aF366456.0
aF365598.0
aF383996.0
aF375094.0
aF412335.0
aF418200.0
aF426588.0
aF416787.0
aF414468.0
aF356578.0
aF351418.0
aF364186.0
aF368069.0
aF368112.0
aF375256.0
aF403937.0
aF477814.0
aF476332.0
aF447602.0
aF462330.0
aF396562.0
aF364700.0
aF300754.0
aF188662.0
aF0.0
aF0.0
aF113226.0
aF361888.0
aF379169.0
aF446883.0
aF389092.0
aF401581.0
aF444352.0
aF505347.0
aF467443.0
aF476786.0
aF529616.0
aF505755.0
aF499076.0
aF503375.0
aF496953.0
aF461795.0
aF506221.0
aF465888.0
aF462617.0
aF440461.0
aF435105.0
aF464934.0
aF455663.0
aF422591.0
aF428581.0
aF401873.0
aF367559.0
aF358399.0
aF388699.0
aF381421.0
aF363931.0
aF391180.0
aF402441.0
aF362270.0
aF361667.0
aF368992.0
aF352230.0
aF371002.0
aF396460.0
aF407127.0
aF405508.0
aF391304.0
aF315005.0
aF356018.0
aF354351.0
aF348783.0
aF377287.0
aF381467.0
aF392660.0
aF370842.0
aF360424.0
aF355821.0
aF369788.0
aF397730.0
aF391865.0
aF382763.0
aF396671.0
aF416485.0
aF422425.0
aF445727.0
aF414186.0
aF421640.0
aF449992.0
aF486604.0
aF466363.0
aF491593.0
aF452685.0
aF409919.0
aF419689.0
aF419524.0
aF407291.0
aF440375.0
aF467253.0
aF384237.0
aF420322.0
aF419930.0
aF436911.0
aF431807.0
aF417811.0
aF444036.0
aF0.0
asS'10'
p75
(lp76
F427886.0
aF459890.0
aF403145.0
aF443757.0
aF389825.0
aF433536.0
aF436184.0
aF425084.0
aF400424.0
aF362273.0
aF389249.0
aF438073.0
aF449230.0
aF442426.0
aF427051.0
aF417423.0
aF400107.0
aF390124.0
aF391720.0
aF365245.0
aF378559.0
aF409610.0
aF397595.0
aF405768.0
aF403968.0
aF392929.0
aF399626.0
aF398079.0
aF399303.0
aF426279.0
aF434705.0
aF404269.0
aF400506.0
aF403786.0
aF405403.0
aF431800.0
aF389825.0
aF389722.0
aF382962.0
aF61171.0
aF0.0
aF0.0
aF231524.0
aF464433.0
aF435542.0
aF423469.0
aF393197.0
aF351103.0
aF417594.0
aF385137.0
aF452595.0
aF366610.0
aF386123.0
aF365548.0
aF370287.0
aF356030.0
aF344464.0
aF343861.0
aF351004.0
aF362938.0
aF381404.0
aF392826.0
aF380919.0
aF379846.0
aF402373.0
aF393376.0
aF355549.0
aF354479.0
aF359417.0
aF387633.0
aF429995.0
aF473962.0
aF487010.0
aF499566.0
aF413921.0
aF434484.0
aF404251.0
aF429901.0
aF397684.0
aF463722.0
aF489187.0
aF450913.0
aF414646.0
aF366321.0
aF374386.0
aF393193.0
aF400651.0
aF419139.0
aF450527.0
aF392232.0
aF375686.0
aF391363.0
aF389092.0
aF395462.0
aF415768.0
aF420883.0
aF390661.0
aF415415.0
aF441587.0
aF467647.0
aF404725.0
aF426763.0
aF478634.0
aF450765.0
aF458352.0
aF460819.0
aF418073.0
aF377219.0
aF390736.0
aF370290.0
aF375632.0
aF404491.0
aF421659.0
aF403677.0
aF422452.0
aF422639.0
aF415455.0
aF378047.0
aF422981.0
aF422939.0
aF434678.0
aF448820.0
aF418437.0
aF444132.0
aF439458.0
aF442652.0
aF482568.0
aF426112.0
aF370317.0
aF440918.0
aF444368.0
aF455924.0
aF470659.0
aF442117.0
aF272800.0
asS'13'
p77
(lp78
F0.0
aF0.0
aF0.0
aF0.0
aF0.0
aF0.0
aF0.0
aF0.0
aF0.0
aF0.0
aF0.0
aF0.0
aF0.0
aF0.0
aF0.0
aF0.0
aF0.0
aF0.0
aF0.0
aF406762.0
aF422788.0
aF425318.0
aF407982.0
aF396432.0
aF425907.0
aF419928.0
aF408637.0
aF434601.0
aF420137.0
aF409649.0
aF427984.0
aF430027.0
aF391118.0
aF399481.0
aF384507.0
aF368226.0
aF390823.0
aF388843.0
aF356752.0
aF378193.0
aF399388.0
aF409508.0
aF390539.0
aF401753.0
aF401015.0
aF418468.0
aF409120.0
aF386632.0
aF393703.0
aF394372.0
aF408823.0
aF404172.0
aF415553.0
aF410209.0
aF358942.0
aF350885.0
aF342733.0
aF343198.0
aF344673.0
aF366662.0
aF375853.0
aF368954.0
aF345913.0
aF337282.0
aF346023.0
aF342821.0
aF348995.0
aF348046.0
aF347101.0
aF334872.0
aF344780.0
aF344392.0
aF352664.0
aF384025.0
aF381592.0
aF376691.0
aF374730.0
aF379940.0
aF372592.0
aF376989.0
aF384537.0
aF356242.0
aF345532.0
aF340001.0
aF348297.0
aF348082.0
aF292825.0
aF344220.0
aF345400.0
aF341882.0
aF348941.0
aF364477.0
aF361020.0
aF361566.0
aF368912.0
aF410857.0
aF395246.0
aF389515.0
aF415806.0
aF436549.0
aF428266.0
aF410523.0
aF369777.0
aF388983.0
aF360041.0
aF359371.0
aF376445.0
aF395851.0
aF372596.0
aF387600.0
aF426492.0
aF458135.0
aF408931.0
aF489531.0
aF47565.0
asS'12'
p79
(lp80
F405749.0
aF427195.0
aF469074.0
aF474810.0
aF427842.0
aF439434.0
aF490576.0
aF409259.0
aF434699.0
aF404929.0
aF376997.0
aF394827.0
aF423326.0
aF421972.0
aF397665.0
aF374947.0
aF372517.0
aF354938.0
aF358917.0
aF392993.0
aF367428.0
aF365577.0
aF374876.0
aF366097.0
aF369281.0
aF391205.0
aF392663.0
aF396627.0
aF369670.0
aF384491.0
aF393675.0
aF434478.0
aF414100.0
aF374868.0
aF357143.0
aF0.0
aF0.0
aF56715.0
aF377341.0
aF369650.0
aF366704.0
aF361032.0
aF394612.0
aF375135.0
aF374012.0
aF382202.0
aF385254.0
aF394166.0
aF437567.0
aF471504.0
aF457729.0
aF434664.0
aF482362.0
aF483657.0
aF470304.0
aF380719.0
aF471425.0
aF472893.0
aF418410.0
aF368935.0
aF350675.0
aF356149.0
aF365955.0
aF393946.0
aF400046.0
aF396097.0
aF397156.0
aF386334.0
aF398726.0
aF402490.0
aF389608.0
aF375593.0
aF371752.0
aF355953.0
aF351648.0
aF353540.0
aF392909.0
aF382682.0
aF356114.0
aF361560.0
aF367945.0
aF352805.0
aF357325.0
aF370251.0
aF349262.0
aF344058.0
aF350089.0
aF347466.0
aF360603.0
aF380100.0
aF365254.0
aF354943.0
aF385026.0
aF406268.0
aF414001.0
aF416012.0
aF411969.0
aF382299.0
aF400037.0
aF384014.0
aF391003.0
aF397228.0
aF392489.0
aF391747.0
aF430129.0
aF414229.0
aF420493.0
aF421881.0
aF446329.0
aF436746.0
aF464052.0
aF473012.0
aF441901.0
aF474052.0
aF459377.0
aF433360.0
aF424060.0
aF464922.0
aF436197.0
aF432369.0
aF463090.0
aF469966.0
aF459913.0
aF474507.0
aF487671.0
aF489530.0
aF411081.0
aF409305.0
aF425620.0
aF445904.0
aF451072.0
aF490630.0
aF421218.0
asS'15'
p81
(lp82
F0.0
aF0.0
aF0.0
aF0.0
aF0.0
aF0.0
aF0.0
aF0.0
aF0.0
aF0.0
aF0.0
aF0.0
aF0.0
aF0.0
aF0.0
aF0.0
aF0.0
aF0.0
aF0.0
aF0.0
aF407777.0
aF214279.0
aF379200.0
aF406217.0
aF391897.0
aF421652.0
aF419510.0
aF410556.0
aF434967.0
aF426192.0
aF421546.0
aF447939.0
aF422835.0
aF404717.0
aF415389.0
aF381869.0
aF367745.0
aF372686.0
aF389452.0
aF396620.0
aF451282.0
aF465196.0
aF451518.0
aF429397.0
aF419047.0
aF435523.0
aF382118.0
aF372232.0
aF394542.0
aF376838.0
aF396125.0
aF410205.0
aF415922.0
aF394322.0
aF366145.0
aF395402.0
aF382243.0
aF403583.0
aF410557.0
aF415608.0
aF406390.0
aF410866.0
aF410896.0
aF432935.0
aF430036.0
aF464518.0
aF457998.0
aF433747.0
aF446872.0
aF441036.0
aF466966.0
aF413494.0
aF421553.0
aF421465.0
aF499761.0
aF493006.0
aF418281.0
aF428421.0
aF482637.0
aF450298.0
aF432089.0
aF422145.0
aF416202.0
aF435894.0
aF410053.0
aF431646.0
aF417763.0
aF383001.0
aF434370.0
aF464687.0
aF468577.0
aF441683.0
aF429757.0
aF443999.0
aF391219.0
aF385922.0
aF395543.0
aF383295.0
aF406132.0
aF437164.0
aF429321.0
aF224963.0
asS'14'
p83
(lp84
F0.0
aF0.0
aF0.0
aF0.0
aF0.0
aF0.0
aF0.0
aF0.0
aF0.0
aF0.0
aF0.0
aF0.0
aF0.0
aF0.0
aF0.0
aF0.0
aF0.0
aF0.0
aF0.0
aF411391.0
aF391122.0
aF434586.0
aF394507.0
aF465927.0
aF463543.0
aF391153.0
aF366474.0
aF348758.0
aF349006.0
aF357292.0
aF375355.0
aF393878.0
aF390758.0
aF377191.0
aF411969.0
aF422309.0
aF385656.0
aF380970.0
aF377016.0
aF388323.0
aF362091.0
aF345295.0
aF347024.0
aF341403.0
aF354696.0
aF381807.0
aF355613.0
aF348675.0
aF356117.0
aF374620.0
aF414360.0
aF404260.0
aF400849.0
aF393854.0
aF397059.0
aF418368.0
aF402222.0
aF395791.0
aF394170.0
aF399536.0
aF382383.0
aF403070.0
aF390215.0
aF381909.0
aF416301.0
aF445766.0
aF402806.0
aF386070.0
aF406484.0
aF457741.0
aF432951.0
aF411788.0
aF410905.0
aF448918.0
aF457159.0
aF453083.0
aF438956.0
aF473513.0
aF434618.0
aF387596.0
aF379528.0
aF385671.0
aF378252.0
aF352836.0
aF356713.0
aF366491.0
aF365220.0
aF368638.0
aF403388.0
aF421293.0
aF434297.0
aF454024.0
aF430884.0
aF456949.0
aF450877.0
aF465472.0
aF446111.0
aF431066.0
aF413309.0
aF454699.0
aF486480.0
aF486186.0
aF471185.0
aF484049.0
aF508982.0
aF569804.0
aF120018.0
asS'17'
p85
(lp86
F456789.0
aF519443.0
aF479146.0
aF469410.0
aF495677.0
aF454855.0
aF464312.0
aF511610.0
aF468821.0
aF459389.0
aF433697.0
aF424772.0
aF412065.0
aF399575.0
aF405825.0
aF434429.0
aF454092.0
aF510887.0
aF483798.0
aF466457.0
aF437739.0
aF411779.0
aF100895.0
aF0.0
aF0.0
aF328782.0
aF454288.0
aF476191.0
aF413411.0
aF440740.0
aF442694.0
aF438236.0
aF447592.0
aF435200.0
aF437568.0
aF441785.0
aF485406.0
aF478718.0
aF467020.0
aF456179.0
aF491025.0
aF476822.0
aF492765.0
aF499740.0
aF437540.0
aF446305.0
aF454092.0
aF474078.0
aF506088.0
aF421173.0
aF372228.0
aF356891.0
aF373166.0
aF399047.0
aF416342.0
aF463860.0
aF442176.0
aF419344.0
aF417669.0
aF402778.0
aF433896.0
aF430519.0
aF429680.0
aF428484.0
aF435708.0
aF434963.0
aF428117.0
aF381409.0
aF372160.0
aF381175.0
aF457578.0
aF491702.0
aF514836.0
aF512262.0
aF504569.0
aF499802.0
aF508610.0
aF516299.0
aF510400.0
aF553128.0
aF104280.0
asS'16'
p87
(lp88
F538193.0
aF577248.0
aF550483.0
aF493806.0
aF515886.0
aF459891.0
aF413297.0
aF412698.0
aF416962.0
aF437523.0
aF447299.0
aF485139.0
aF463200.0
aF420605.0
aF438096.0
aF465880.0
aF462204.0
aF434984.0
aF445281.0
aF449390.0
aF427427.0
aF439574.0
aF440546.0
aF450867.0
aF437688.0
aF426437.0
aF417011.0
aF476889.0
aF492375.0
aF489846.0
aF505961.0
aF459846.0
aF417479.0
aF423994.0
aF353477.0
aF107315.0
aF0.0
aF0.0
aF0.0
aF0.0
aF0.0
aF0.0
aF0.0
aF0.0
aF0.0
aF0.0
aF257154.0
aF398124.0
aF435583.0
aF470284.0
aF457510.0
aF418659.0
aF395395.0
aF400363.0
aF432548.0
aF438956.0
aF447795.0
aF495146.0
aF448363.0
aF373606.0
aF366369.0
aF361212.0
aF368780.0
aF362325.0
aF370086.0
aF410169.0
aF467365.0
aF504735.0
aF468860.0
aF442186.0
aF477507.0
aF425884.0
aF410397.0
aF425942.0
aF434499.0
aF443793.0
aF365044.0
aF412180.0
aF425612.0
aF427879.0
aF414839.0
aF475312.0
aF418288.0
aF434040.0
aF491867.0
aF537656.0
aF487769.0
aF508908.0
aF540001.0
aF142178.0
asS'19'
p89
(lp90
F513290.0
aF591154.0
aF545939.0
aF555435.0
aF541033.0
aF531106.0
aF490239.0
aF482064.0
aF478715.0
aF449572.0
aF521683.0
aF499286.0
aF467575.0
aF504187.0
aF502549.0
aF478502.0
aF499133.0
aF524378.0
aF544154.0
aF507766.0
aF385725.0
aF409462.0
aF412984.0
aF413637.0
aF251872.0
aF0.0
aF0.0
aF97995.0
aF419065.0
aF446625.0
aF472675.0
aF442931.0
aF428809.0
aF484325.0
aF468027.0
aF468769.0
aF505316.0
aF422828.0
aF477133.0
aF512968.0
aF464080.0
aF494710.0
aF504310.0
aF440531.0
aF434215.0
aF518520.0
aF497106.0
aF506078.0
aF495049.0
aF522982.0
aF523703.0
aF502625.0
aF436981.0
aF448139.0
aF497341.0
aF505567.0
aF471478.0
aF440608.0
aF61790.0
asS'18'
p91
(lp92
F418750.0
aF365784.0
aF390561.0
aF416368.0
aF376326.0
aF398870.0
aF398797.0
aF417807.0
aF426390.0
aF410755.0
aF426405.0
aF424006.0
aF437058.0
aF438687.0
aF408206.0
aF153019.0
aF0.0
aF0.0
aF191435.0
aF421473.0
aF416862.0
aF423711.0
aF402284.0
aF390148.0
aF396509.0
aF372728.0
aF352471.0
aF346257.0
aF361763.0
aF403070.0
aF368097.0
aF358633.0
aF386813.0
aF414703.0
aF423401.0
aF412451.0
aF367924.0
aF367286.0
aF355948.0
aF378008.0
aF363630.0
aF361448.0
aF404780.0
aF440257.0
aF435267.0
aF445965.0
aF447377.0
aF440516.0
aF422840.0
aF387641.0
aF367778.0
aF379780.0
aF325324.0
aF385349.0
aF395998.0
aF430366.0
aF435649.0
aF405403.0
aF362059.0
aF391787.0
aF422334.0
aF390176.0
aF355338.0
aF347594.0
aF342626.0
aF350764.0
aF354953.0
aF373935.0
aF380395.0
aF350278.0
aF369078.0
aF398004.0
aF398601.0
aF412711.0
aF450634.0
aF391811.0
aF455808.0
aF8676.0
asS'N18'
p93
(lp94
F10000.0
aF0.0
aF0.0
aF0.0
aF0.0
aF0.0
aF0.0
aF0.0
aF0.0
aF0.0
aF0.0
aF0.0
aF0.0
aF0.0
aF0.0
aF589102.0
aF1000000.0
aF1000000.0
aF510898.0
aF0.0
aF0.0
aF0.0
aF0.0
aF0.0
aF0.0
aF0.0
aF0.0
aF0.0
aF0.0
aF0.0
aF0.0
aF0.0
aF0.0
aF0.0
aF0.0
aF0.0
aF0.0
aF0.0
aF0.0
aF0.0
aF0.0
aF0.0
aF0.0
aF0.0
aF0.0
aF0.0
aF0.0
aF0.0
aF0.0
aF0.0
aF0.0
aF0.0
aF150000.0
aF0.0
aF0.0
aF0.0
aF0.0
aF0.0
aF0.0
aF0.0
aF0.0
aF0.0
aF0.0
aF0.0
aF0.0
aF0.0
aF0.0
aF0.0
aF0.0
aF0.0
aF0.0
aF0.0
aF50000.0
aF0.0
aF0.0
aF50000.0
aF0.0
aF60019.0
asS'N15'
p95
(lp96
F1000000.0
aF1000000.0
aF1000000.0
aF1000000.0
aF1000000.0
aF1000000.0
aF1000000.0
aF1000000.0
aF1000000.0
aF1000000.0
aF1000000.0
aF1000000.0
aF1000000.0
aF1000000.0
aF1000000.0
aF1000000.0
aF1000000.0
aF1000000.0
aF1000000.0
aF1000000.0
aF40442.0
aF486181.0
aF100000.0
aF50000.0
aF0.0
aF0.0
aF0.0
aF3.0
aF0.0
aF50000.0
aF0.0
aF0.0
aF0.0
aF0.0
aF0.0
aF0.0
aF0.0
aF0.0
aF0.0
aF0.0
aF0.0
aF0.0
aF0.0
aF0.0
aF0.0
aF0.0
aF0.0
aF0.0
aF0.0
aF0.0
aF0.0
aF0.0
aF0.0
aF0.0
aF0.0
aF0.0
aF0.0
aF0.0
aF0.0
aF0.0
aF0.0
aF0.0
aF0.0
aF0.0
aF0.0
aF0.0
aF0.0
aF0.0
aF0.0
aF0.0
aF0.0
aF0.0
aF0.0
aF0.0
aF0.0
aF0.0
aF0.0
aF0.0
aF0.0
aF0.0
aF0.0
aF0.0
aF50000.0
aF0.0
aF15527.0
aF34473.0
aF0.0
aF0.0
aF0.0
aF0.0
aF0.0
aF0.0
aF0.0
aF0.0
aF0.0
aF0.0
aF0.0
aF0.0
aF0.0
aF0.0
aF0.0
aF10000.0
as.